target datalayout = "e-m:e-p270:32:32-p271:32:32-p272:64:64-i64:64-i128:128-f80:128-n8:16:32:64-S128"
target triple = "x86_64-pc-linux-gnu"

; Function Attrs: nounwind uwtable
define dso_local i32 @init() #0 {
  %1 = alloca i32, align 4
  %2 = call i32 @xcpuinfo_init()
  %3 = icmp ne i32 %2, 0
  br i1 %3, label %4, label %5

4:                                                ; preds = %0
  store i32 -1, ptr %1, align 4
  br label %11

5:                                                ; preds = %0
  %6 = call i32 @cgroup_g_initialize(i32 noundef 0)
  %7 = icmp ne i32 %6, 0
  br i1 %7, label %8, label %10

8:                                                ; preds = %5
  %9 = call i32 @xcpuinfo_fini()
  store i32 -1, ptr %1, align 4
  br label %11

10:                                               ; preds = %5
  store i32 0, ptr %1, align 4
  br label %11

11:                                               ; preds = %10, %8, %4
  %12 = load i32, ptr %1, align 4
  ret i32 %12
}