; Function Attrs: nounwind uwtable
define dso_local range(i32 -1, 1) i32 @init() local_unnamed_addr #0 {
  %1 = tail call i32 @xcpuinfo_init() #8
  %.not = icmp eq i32 %1, 0
  br i1 %.not, label %2, label %6

2:                                                ; preds = %0
  %3 = tail call i32 @cgroup_g_initialize(i32 noundef 0) #8
  %.not1 = icmp eq i32 %3, 0
  br i1 %.not1, label %6, label %4

4:                                                ; preds = %2
  %5 = tail call i32 @xcpuinfo_fini() #8
  br label %6

6:                                                ; preds = %2, %0, %4
  %.0 = phi i32 [ -1, %4 ], [ -1, %0 ], [ 0, %2 ]
  ret i32 %.0
}